target datalayout = "e-m:e-p270:32:32-p271:32:32-p272:64:64-i64:64-i128:128-f80:128-n8:16:32:64-S128"
target triple = "x86_64-pc-linux-gnu"

%struct.usershape_s = type { %struct._dtlink_s, ptr, i32, i8, i8, ptr, i32, ptr, i32, i32, i32, i32, i32, ptr, i64, ptr }
%struct._dtlink_s = type { ptr, %union.anon }
%union.anon = type { ptr }

@.str.31 = private unnamed_addr constant [15 x i8] c"%%BoundingBox:\00", align 1
@.str.32 = private unnamed_addr constant [29 x i8] c"%%%%BoundingBox: %d %d %d %d\00", align 1

; Function Attrs: nounwind uwtable
define internal void @ps_size(ptr noundef %0) #0 {
  %2 = alloca ptr, align 8
  %3 = alloca [8192 x i8], align 16
  %4 = alloca i32, align 4
  %5 = alloca i32, align 4
  %6 = alloca i32, align 4
  %7 = alloca i32, align 4
  %8 = alloca ptr, align 8
  %9 = alloca i8, align 1
  store ptr %0, ptr %2, align 8
  %10 = load ptr, ptr %2, align 8
  %11 = getelementptr inbounds %struct.usershape_s, ptr %10, i32 0, i32 12
  store i32 72, ptr %11, align 8
  %12 = load ptr, ptr %2, align 8
  %13 = getelementptr inbounds %struct.usershape_s, ptr %12, i32 0, i32 5
  %14 = load ptr, ptr %13, align 8
  %15 = call i32 @fseek(ptr noundef %14, i64 noundef 0, i32 noundef 0)
  store i8 0, ptr %9, align 1
  br label %16

16:                                               ; preds = %33, %27, %1
  %17 = getelementptr inbounds [8192 x i8], ptr %3, i64 0, i64 0
  %18 = load ptr, ptr %2, align 8
  %19 = getelementptr inbounds %struct.usershape_s, ptr %18, i32 0, i32 5
  %20 = load ptr, ptr %19, align 8
  %21 = call ptr @fgets(ptr noundef %17, i32 noundef 8192, ptr noundef %20)
  %22 = icmp ne ptr %21, null
  br i1 %22, label %23, label %34

23:                                               ; preds = %16
  %24 = getelementptr inbounds [8192 x i8], ptr %3, i64 0, i64 0
  %25 = call ptr @strstr(ptr noundef %24, ptr noundef @.str.31) #14
  store ptr %25, ptr %8, align 8
  %26 = icmp ne ptr %25, null
  br i1 %26, label %28, label %27

27:                                               ; preds = %23
  br label %16

28:                                               ; preds = %23
  %29 = load ptr, ptr %8, align 8
  %30 = call i32 (ptr, ptr, ...) @__isoc99_sscanf(ptr noundef %29, ptr noundef @.str.32, ptr noundef %4, ptr noundef %5, ptr noundef %6, ptr noundef %7) #13
  %31 = icmp eq i32 %30, 4
  br i1 %31, label %32, label %33

32:                                               ; preds = %28
  store i8 1, ptr %9, align 1
  br label %34

33:                                               ; preds = %28
  br label %16

34:                                               ; preds = %32, %16
  %35 = load i8, ptr %9, align 1
  %36 = trunc i8 %35 to i1
  br i1 %36, label %37, label %54

37:                                               ; preds = %34
  %38 = load i32, ptr %4, align 4
  %39 = load ptr, ptr %2, align 8
  %40 = getelementptr inbounds %struct.usershape_s, ptr %39, i32 0, i32 8
  store i32 %38, ptr %40, align 8
  %41 = load i32, ptr %5, align 4
  %42 = load ptr, ptr %2, align 8
  %43 = getelementptr inbounds %struct.usershape_s, ptr %42, i32 0, i32 9
  store i32 %41, ptr %43, align 4
  %44 = load i32, ptr %6, align 4
  %45 = load i32, ptr %4, align 4
  %46 = sub nsw i32 %44, %45
  %47 = load ptr, ptr %2, align 8
  %48 = getelementptr inbounds %struct.usershape_s, ptr %47, i32 0, i32 10
  store i32 %46, ptr %48, align 8
  %49 = load i32, ptr %7, align 4
  %50 = load i32, ptr %5, align 4
  %51 = sub nsw i32 %49, %50
  %52 = load ptr, ptr %2, align 8
  %53 = getelementptr inbounds %struct.usershape_s, ptr %52, i32 0, i32 11
  store i32 %51, ptr %53, align 4
  br label %54

54:                                               ; preds = %37, %34
  ret void
}