; Function Attrs: nofree nounwind uwtable
define internal fastcc void @ps_size(ptr noundef captures(none) initializes((72, 76)) %0) unnamed_addr #5 {
  %2 = alloca [8192 x i8], align 16
  %3 = alloca i32, align 4
  %4 = alloca i32, align 4
  %5 = alloca i32, align 4
  %6 = alloca i32, align 4
  %7 = getelementptr inbounds nuw i8, ptr %0, i64 72
  store i32 72, ptr %7, align 8
  %8 = getelementptr inbounds nuw i8, ptr %0, i64 32
  %9 = load ptr, ptr %8, align 8
  %10 = tail call i32 @fseek(ptr noundef %9, i64 noundef 0, i32 noundef 0)
  %11 = load ptr, ptr %8, align 8
  %12 = call ptr @fgets(ptr noundef nonnull %2, i32 noundef 8192, ptr noundef %11)
  %.not.not10 = icmp eq ptr %12, null
  br i1 %.not.not10, label %.critedge, label %.lr.ph

.lr.ph:                                           ; preds = %1, %.backedge
  %13 = call ptr @strstr(ptr noundef nonnull dereferenceable(1) %2, ptr noundef nonnull dereferenceable(1) @.str.31) #26
  %.not9 = icmp eq ptr %13, null
  br i1 %.not9, label %.backedge, label %16

.backedge:                                        ; preds = %.lr.ph, %16
  %14 = load ptr, ptr %8, align 8
  %15 = call ptr @fgets(ptr noundef nonnull %2, i32 noundef 8192, ptr noundef %14)
  %.not.not = icmp eq ptr %15, null
  br i1 %.not.not, label %.critedge, label %.lr.ph

16:                                               ; preds = %.lr.ph
  %17 = call i32 (ptr, ptr, ...) @__isoc99_sscanf(ptr noundef nonnull %13, ptr noundef nonnull @.str.32, ptr noundef nonnull %3, ptr noundef nonnull %4, ptr noundef nonnull %5, ptr noundef nonnull %6) #21
  %18 = icmp eq i32 %17, 4
  br i1 %18, label %19, label %.backedge

19:                                               ; preds = %16
  %20 = load i32, ptr %3, align 4
  %21 = getelementptr inbounds nuw i8, ptr %0, i64 56
  store i32 %20, ptr %21, align 8
  %22 = load i32, ptr %4, align 4
  %23 = getelementptr inbounds nuw i8, ptr %0, i64 60
  store i32 %22, ptr %23, align 4
  %24 = load i32, ptr %5, align 4
  %25 = sub nsw i32 %24, %20
  %26 = getelementptr inbounds nuw i8, ptr %0, i64 64
  store i32 %25, ptr %26, align 8
  %27 = load i32, ptr %6, align 4
  %28 = sub nsw i32 %27, %22
  %29 = getelementptr inbounds nuw i8, ptr %0, i64 68
  store i32 %28, ptr %29, align 4
  br label %.critedge

.critedge:                                        ; preds = %.backedge, %1, %19
  ret void
}